target datalayout = "e-m:e-p270:32:32-p271:32:32-p272:64:64-i64:64-i128:128-f80:128-n8:16:32:64-S128"
target triple = "x86_64-pc-linux-gnu"

%struct.APEContext = type { ptr, ptr, %struct.BswapDSPContext, %struct.LLAudDSPContext, i32, i32, i32, i32, i32, i32, i32, i32, i32, i32, %struct.APEPredictor, %struct.APEPredictor64, ptr, i32, [2 x ptr], ptr, i32, [2 x ptr], i32, [3 x ptr], %struct.APERangecoder, %struct.APERice, %struct.APERice, [3 x [2 x %struct.APEFilter]], %struct.GetBitContext, ptr, ptr, i32, ptr, i32, i32, ptr, ptr, ptr, ptr }
%struct.BswapDSPContext = type { ptr, ptr }
%struct.LLAudDSPContext = type { ptr, ptr }
%struct.APEPredictor = type { ptr, [2 x i32], [2 x i32], [2 x i32], [2 x [4 x i32]], [2 x [5 x i32]], [562 x i32], i32 }
%struct.APEPredictor64 = type { ptr, [2 x i64], [2 x i64], [2 x i64], [2 x [4 x i64]], [2 x [5 x i64]], [562 x i64] }
%struct.APERangecoder = type { i32, i32, i32, i32 }
%struct.APERice = type { i32, i32 }
%struct.APEFilter = type { ptr, ptr, ptr, ptr, i32 }
%struct.GetBitContext = type { ptr, ptr, i32, i32, i32 }

; Function Attrs: alwaysinline nounwind willreturn memory(none) uwtable
define internal signext i16 @av_clip_int16_c(i32 noundef %0) #6 {
  %2 = alloca i16, align 2
  %3 = alloca i32, align 4
  store i32 %0, ptr %3, align 4, !tbaa !32
  %4 = load i32, ptr %3, align 4, !tbaa !32
  %5 = add i32 %4, 32768
  %6 = and i32 %5, -65536
  %7 = icmp ne i32 %6, 0
  br i1 %7, label %8, label %13

8:                                                ; preds = %1
  %9 = load i32, ptr %3, align 4, !tbaa !32
  %10 = ashr i32 %9, 31
  %11 = xor i32 %10, 32767
  %12 = trunc i32 %11 to i16
  store i16 %12, ptr %2, align 2
  br label %16

13:                                               ; preds = %1
  %14 = load i32, ptr %3, align 4, !tbaa !32
  %15 = trunc i32 %14 to i16
  store i16 %15, ptr %2, align 2
  br label %16

16:                                               ; preds = %13, %8
  %17 = load i16, ptr %2, align 2
  ret i16 %17
}

; Function Attrs: inlinehint nounwind uwtable
define internal i32 @APESIGN(i32 noundef %0) #5 {
  %2 = alloca i32, align 4
  store i32 %0, ptr %2, align 4, !tbaa !32
  %3 = load i32, ptr %2, align 4, !tbaa !32
  %4 = icmp slt i32 %3, 0
  %5 = zext i1 %4 to i32
  %6 = load i32, ptr %2, align 4, !tbaa !32
  %7 = icmp sgt i32 %6, 0
  %8 = zext i1 %7 to i32
  %9 = sub nsw i32 %5, %8
  ret i32 %9
}

; Function Attrs: nounwind uwtable
define internal void @do_apply_filter(ptr noundef %0, i32 noundef %1, ptr noundef %2, ptr noundef %3, i32 noundef %4, i32 noundef %5, i32 noundef %6) #1 {
  %8 = alloca ptr, align 8
  %9 = alloca i32, align 4
  %10 = alloca ptr, align 8
  %11 = alloca ptr, align 8
  %12 = alloca i32, align 4
  %13 = alloca i32, align 4
  %14 = alloca i32, align 4
  %15 = alloca i32, align 4
  %16 = alloca i32, align 4
  store ptr %0, ptr %8, align 8, !tbaa !29
  store i32 %1, ptr %9, align 4, !tbaa !32
  store ptr %2, ptr %10, align 8, !tbaa !170
  store ptr %3, ptr %11, align 8, !tbaa !72
  store i32 %4, ptr %12, align 4, !tbaa !32
  store i32 %5, ptr %13, align 4, !tbaa !32
  store i32 %6, ptr %14, align 4, !tbaa !32
  call void @llvm.lifetime.start.p0(i64 4, ptr %15) #11
  call void @llvm.lifetime.start.p0(i64 4, ptr %16) #11
  br label %17

17:                                               ; preds = %237, %7
  %18 = load i32, ptr %12, align 4, !tbaa !32
  %19 = add nsw i32 %18, -1
  store i32 %19, ptr %12, align 4, !tbaa !32
  %20 = icmp ne i32 %18, 0
  br i1 %20, label %21, label %238

21:                                               ; preds = %17
  %22 = load ptr, ptr %8, align 8, !tbaa !29
  %23 = getelementptr inbounds nuw %struct.APEContext, ptr %22, i32 0, i32 3
  %24 = getelementptr inbounds nuw %struct.LLAudDSPContext, ptr %23, i32 0, i32 0
  %25 = load ptr, ptr %24, align 8, !tbaa !172
  %26 = load ptr, ptr %10, align 8, !tbaa !170
  %27 = getelementptr inbounds nuw %struct.APEFilter, ptr %26, i32 0, i32 0
  %28 = load ptr, ptr %27, align 8, !tbaa !173
  %29 = load ptr, ptr %10, align 8, !tbaa !170
  %30 = getelementptr inbounds nuw %struct.APEFilter, ptr %29, i32 0, i32 3
  %31 = load ptr, ptr %30, align 8, !tbaa !175
  %32 = load i32, ptr %13, align 4, !tbaa !32
  %33 = sext i32 %32 to i64
  %34 = sub i64 0, %33
  %35 = getelementptr inbounds i16, ptr %31, i64 %34
  %36 = load ptr, ptr %10, align 8, !tbaa !170
  %37 = getelementptr inbounds nuw %struct.APEFilter, ptr %36, i32 0, i32 1
  %38 = load ptr, ptr %37, align 8, !tbaa !176
  %39 = load i32, ptr %13, align 4, !tbaa !32
  %40 = sext i32 %39 to i64
  %41 = sub i64 0, %40
  %42 = getelementptr inbounds i16, ptr %38, i64 %41
  %43 = load i32, ptr %13, align 4, !tbaa !32
  %44 = load ptr, ptr %11, align 8, !tbaa !72
  %45 = load i32, ptr %44, align 4, !tbaa !32
  %46 = call i32 @APESIGN(i32 noundef %45)
  %47 = call i32 %25(ptr noundef %28, ptr noundef %35, ptr noundef %42, i32 noundef %43, i32 noundef %46)
  store i32 %47, ptr %15, align 4, !tbaa !32
  %48 = load i32, ptr %15, align 4, !tbaa !32
  %49 = sext i32 %48 to i64
  %50 = load i32, ptr %14, align 4, !tbaa !32
  %51 = sub nsw i32 %50, 1
  %52 = zext i32 %51 to i64
  %53 = shl i64 1, %52
  %54 = add nsw i64 %49, %53
  %55 = load i32, ptr %14, align 4, !tbaa !32
  %56 = zext i32 %55 to i64
  %57 = ashr i64 %54, %56
  %58 = trunc i64 %57 to i32
  store i32 %58, ptr %15, align 4, !tbaa !32
  %59 = load ptr, ptr %11, align 8, !tbaa !72
  %60 = load i32, ptr %59, align 4, !tbaa !32
  %61 = load i32, ptr %15, align 4, !tbaa !32
  %62 = add i32 %61, %60
  store i32 %62, ptr %15, align 4, !tbaa !32
  %63 = load i32, ptr %15, align 4, !tbaa !32
  %64 = load ptr, ptr %11, align 8, !tbaa !72
  %65 = getelementptr inbounds nuw i32, ptr %64, i32 1
  store ptr %65, ptr %11, align 8, !tbaa !72
  store i32 %63, ptr %64, align 4, !tbaa !32
  %66 = load i32, ptr %15, align 4, !tbaa !32
  %67 = call signext i16 @av_clip_int16_c(i32 noundef %66) #14
  %68 = load ptr, ptr %10, align 8, !tbaa !170
  %69 = getelementptr inbounds nuw %struct.APEFilter, ptr %68, i32 0, i32 3
  %70 = load ptr, ptr %69, align 8, !tbaa !175
  %71 = getelementptr inbounds nuw i16, ptr %70, i32 1
  store ptr %71, ptr %69, align 8, !tbaa !175
  store i16 %67, ptr %70, align 2, !tbaa !56
  %72 = load i32, ptr %9, align 4, !tbaa !32
  %73 = icmp slt i32 %72, 3980
  br i1 %73, label %74, label %106

74:                                               ; preds = %21
  %75 = load i32, ptr %15, align 4, !tbaa !32
  %76 = icmp eq i32 %75, 0
  br i1 %76, label %77, label %78

77:                                               ; preds = %74
  br label %83

78:                                               ; preds = %74
  %79 = load i32, ptr %15, align 4, !tbaa !32
  %80 = ashr i32 %79, 28
  %81 = and i32 %80, 8
  %82 = sub nsw i32 %81, 4
  br label %83

83:                                               ; preds = %78, %77
  %84 = phi i32 [ 0, %77 ], [ %82, %78 ]
  %85 = trunc i32 %84 to i16
  %86 = load ptr, ptr %10, align 8, !tbaa !170
  %87 = getelementptr inbounds nuw %struct.APEFilter, ptr %86, i32 0, i32 1
  %88 = load ptr, ptr %87, align 8, !tbaa !176
  %89 = getelementptr inbounds i16, ptr %88, i64 0
  store i16 %85, ptr %89, align 2, !tbaa !56
  %90 = load ptr, ptr %10, align 8, !tbaa !170
  %91 = getelementptr inbounds nuw %struct.APEFilter, ptr %90, i32 0, i32 1
  %92 = load ptr, ptr %91, align 8, !tbaa !176
  %93 = getelementptr inbounds i16, ptr %92, i64 -4
  %94 = load i16, ptr %93, align 2, !tbaa !56
  %95 = sext i16 %94 to i32
  %96 = ashr i32 %95, 1
  %97 = trunc i32 %96 to i16
  store i16 %97, ptr %93, align 2, !tbaa !56
  %98 = load ptr, ptr %10, align 8, !tbaa !170
  %99 = getelementptr inbounds nuw %struct.APEFilter, ptr %98, i32 0, i32 1
  %100 = load ptr, ptr %99, align 8, !tbaa !176
  %101 = getelementptr inbounds i16, ptr %100, i64 -8
  %102 = load i16, ptr %101, align 2, !tbaa !56
  %103 = sext i16 %102 to i32
  %104 = ashr i32 %103, 1
  %105 = trunc i32 %104 to i16
  store i16 %105, ptr %101, align 2, !tbaa !56
  br label %187

106:                                              ; preds = %21
  %107 = load i32, ptr %15, align 4, !tbaa !32
  %108 = icmp sle i32 %107, 0
  br i1 %108, label %109, label %112

109:                                              ; preds = %106
  %110 = load i32, ptr %15, align 4, !tbaa !32
  %111 = sub i32 0, %110
  br label %114

112:                                              ; preds = %106
  %113 = load i32, ptr %15, align 4, !tbaa !32
  br label %114

114:                                              ; preds = %112, %109
  %115 = phi i32 [ %111, %109 ], [ %113, %112 ]
  store i32 %115, ptr %16, align 4, !tbaa !32
  %116 = load i32, ptr %16, align 4, !tbaa !32
  %117 = icmp ne i32 %116, 0
  br i1 %117, label %118, label %148

118:                                              ; preds = %114
  %119 = load i32, ptr %15, align 4, !tbaa !32
  %120 = call i32 @APESIGN(i32 noundef %119)
  %121 = load i32, ptr %16, align 4, !tbaa !32
  %122 = zext i32 %121 to i64
  %123 = load ptr, ptr %10, align 8, !tbaa !170
  %124 = getelementptr inbounds nuw %struct.APEFilter, ptr %123, i32 0, i32 4
  %125 = load i32, ptr %124, align 8, !tbaa !177
  %126 = zext i32 %125 to i64
  %127 = mul nsw i64 %126, 3
  %128 = icmp sgt i64 %122, %127
  %129 = zext i1 %128 to i32
  %130 = load i32, ptr %16, align 4, !tbaa !32
  %131 = load ptr, ptr %10, align 8, !tbaa !170
  %132 = getelementptr inbounds nuw %struct.APEFilter, ptr %131, i32 0, i32 4
  %133 = load i32, ptr %132, align 8, !tbaa !177
  %134 = load ptr, ptr %10, align 8, !tbaa !170
  %135 = getelementptr inbounds nuw %struct.APEFilter, ptr %134, i32 0, i32 4
  %136 = load i32, ptr %135, align 8, !tbaa !177
  %137 = udiv i32 %136, 3
  %138 = add i32 %133, %137
  %139 = icmp ugt i32 %130, %138
  %140 = zext i1 %139 to i32
  %141 = add nsw i32 %129, %140
  %142 = shl i32 8, %141
  %143 = mul nsw i32 %120, %142
  %144 = trunc i32 %143 to i16
  %145 = load ptr, ptr %10, align 8, !tbaa !170
  %146 = getelementptr inbounds nuw %struct.APEFilter, ptr %145, i32 0, i32 1
  %147 = load ptr, ptr %146, align 8, !tbaa !176
  store i16 %144, ptr %147, align 2, !tbaa !56
  br label %152

148:                                              ; preds = %114
  %149 = load ptr, ptr %10, align 8, !tbaa !170
  %150 = getelementptr inbounds nuw %struct.APEFilter, ptr %149, i32 0, i32 1
  %151 = load ptr, ptr %150, align 8, !tbaa !176
  store i16 0, ptr %151, align 2, !tbaa !56
  br label %152

152:                                              ; preds = %148, %118
  %153 = load i32, ptr %16, align 4, !tbaa !32
  %154 = load ptr, ptr %10, align 8, !tbaa !170
  %155 = getelementptr inbounds nuw %struct.APEFilter, ptr %154, i32 0, i32 4
  %156 = load i32, ptr %155, align 8, !tbaa !177
  %157 = sub i32 %153, %156
  %158 = sdiv i32 %157, 16
  %159 = load ptr, ptr %10, align 8, !tbaa !170
  %160 = getelementptr inbounds nuw %struct.APEFilter, ptr %159, i32 0, i32 4
  %161 = load i32, ptr %160, align 8, !tbaa !177
  %162 = add i32 %161, %158
  store i32 %162, ptr %160, align 8, !tbaa !177
  %163 = load ptr, ptr %10, align 8, !tbaa !170
  %164 = getelementptr inbounds nuw %struct.APEFilter, ptr %163, i32 0, i32 1
  %165 = load ptr, ptr %164, align 8, !tbaa !176
  %166 = getelementptr inbounds i16, ptr %165, i64 -1
  %167 = load i16, ptr %166, align 2, !tbaa !56
  %168 = sext i16 %167 to i32
  %169 = ashr i32 %168, 1
  %170 = trunc i32 %169 to i16
  store i16 %170, ptr %166, align 2, !tbaa !56
  %171 = load ptr, ptr %10, align 8, !tbaa !170
  %172 = getelementptr inbounds nuw %struct.APEFilter, ptr %171, i32 0, i32 1
  %173 = load ptr, ptr %172, align 8, !tbaa !176
  %174 = getelementptr inbounds i16, ptr %173, i64 -2
  %175 = load i16, ptr %174, align 2, !tbaa !56
  %176 = sext i16 %175 to i32
  %177 = ashr i32 %176, 1
  %178 = trunc i32 %177 to i16
  store i16 %178, ptr %174, align 2, !tbaa !56
  %179 = load ptr, ptr %10, align 8, !tbaa !170
  %180 = getelementptr inbounds nuw %struct.APEFilter, ptr %179, i32 0, i32 1
  %181 = load ptr, ptr %180, align 8, !tbaa !176
  %182 = getelementptr inbounds i16, ptr %181, i64 -8
  %183 = load i16, ptr %182, align 2, !tbaa !56
  %184 = sext i16 %183 to i32
  %185 = ashr i32 %184, 1
  %186 = trunc i32 %185 to i16
  store i16 %186, ptr %182, align 2, !tbaa !56
  br label %187

187:                                              ; preds = %152, %83
  %188 = load ptr, ptr %10, align 8, !tbaa !170
  %189 = getelementptr inbounds nuw %struct.APEFilter, ptr %188, i32 0, i32 1
  %190 = load ptr, ptr %189, align 8, !tbaa !176
  %191 = getelementptr inbounds nuw i16, ptr %190, i32 1
  store ptr %191, ptr %189, align 8, !tbaa !176
  %192 = load ptr, ptr %10, align 8, !tbaa !170
  %193 = getelementptr inbounds nuw %struct.APEFilter, ptr %192, i32 0, i32 3
  %194 = load ptr, ptr %193, align 8, !tbaa !175
  %195 = load ptr, ptr %10, align 8, !tbaa !170
  %196 = getelementptr inbounds nuw %struct.APEFilter, ptr %195, i32 0, i32 2
  %197 = load ptr, ptr %196, align 8, !tbaa !178
  %198 = getelementptr inbounds i16, ptr %197, i64 512
  %199 = load i32, ptr %13, align 4, !tbaa !32
  %200 = mul nsw i32 %199, 2
  %201 = sext i32 %200 to i64
  %202 = getelementptr inbounds i16, ptr %198, i64 %201
  %203 = icmp eq ptr %194, %202
  br i1 %203, label %204, label %237

204:                                              ; preds = %187
  %205 = load ptr, ptr %10, align 8, !tbaa !170
  %206 = getelementptr inbounds nuw %struct.APEFilter, ptr %205, i32 0, i32 2
  %207 = load ptr, ptr %206, align 8, !tbaa !178
  %208 = load ptr, ptr %10, align 8, !tbaa !170
  %209 = getelementptr inbounds nuw %struct.APEFilter, ptr %208, i32 0, i32 3
  %210 = load ptr, ptr %209, align 8, !tbaa !175
  %211 = load i32, ptr %13, align 4, !tbaa !32
  %212 = mul nsw i32 %211, 2
  %213 = sext i32 %212 to i64
  %214 = sub i64 0, %213
  %215 = getelementptr inbounds i16, ptr %210, i64 %214
  %216 = load i32, ptr %13, align 4, !tbaa !32
  %217 = mul nsw i32 %216, 2
  %218 = sext i32 %217 to i64
  %219 = mul i64 %218, 2
  call void @llvm.memmove.p0.p0.i64(ptr align 2 %207, ptr align 2 %215, i64 %219, i1 false)
  %220 = load ptr, ptr %10, align 8, !tbaa !170
  %221 = getelementptr inbounds nuw %struct.APEFilter, ptr %220, i32 0, i32 2
  %222 = load ptr, ptr %221, align 8, !tbaa !178
  %223 = load i32, ptr %13, align 4, !tbaa !32
  %224 = mul nsw i32 %223, 2
  %225 = sext i32 %224 to i64
  %226 = getelementptr inbounds i16, ptr %222, i64 %225
  %227 = load ptr, ptr %10, align 8, !tbaa !170
  %228 = getelementptr inbounds nuw %struct.APEFilter, ptr %227, i32 0, i32 3
  store ptr %226, ptr %228, align 8, !tbaa !175
  %229 = load ptr, ptr %10, align 8, !tbaa !170
  %230 = getelementptr inbounds nuw %struct.APEFilter, ptr %229, i32 0, i32 2
  %231 = load ptr, ptr %230, align 8, !tbaa !178
  %232 = load i32, ptr %13, align 4, !tbaa !32
  %233 = sext i32 %232 to i64
  %234 = getelementptr inbounds i16, ptr %231, i64 %233
  %235 = load ptr, ptr %10, align 8, !tbaa !170
  %236 = getelementptr inbounds nuw %struct.APEFilter, ptr %235, i32 0, i32 1
  store ptr %234, ptr %236, align 8, !tbaa !176
  br label %237

237:                                              ; preds = %204, %187
  br label %17, !llvm.loop !179

238:                                              ; preds = %17
  call void @llvm.lifetime.end.p0(i64 4, ptr %16) #11
  call void @llvm.lifetime.end.p0(i64 4, ptr %15) #11
  ret void
}