; Function Attrs: nounwind uwtable
define internal fastcc void @do_apply_filter(ptr noundef readonly captures(none) %0, i32 noundef %1, ptr noundef captures(none) %2, ptr noundef captures(none) %3, i32 noundef %4, i32 noundef range(i32 1, 65536) %5, i32 noundef range(i32 0, 256) %6) unnamed_addr #1 {
  %.not61 = icmp eq i32 %4, 0
  br i1 %.not61, label %._crit_edge, label %.lr.ph

.lr.ph:                                           ; preds = %7
  %8 = add nsw i32 %4, -1
  %9 = getelementptr inbounds nuw i8, ptr %0, i64 32
  %10 = getelementptr inbounds nuw i8, ptr %2, i64 24
  %11 = zext nneg i32 %5 to i64
  %12 = sub nsw i64 0, %11
  %13 = getelementptr inbounds nuw i8, ptr %2, i64 8
  %14 = add nsw i32 %6, -1
  %15 = zext nneg i32 %14 to i64
  %16 = shl nuw i64 1, %15
  %17 = zext nneg i32 %6 to i64
  %18 = icmp slt i32 %1, 3980
  %19 = getelementptr inbounds nuw i8, ptr %2, i64 32
  %20 = getelementptr inbounds nuw i8, ptr %2, i64 16
  %21 = shl nuw nsw i32 %5, 1
  %22 = zext nneg i32 %21 to i64
  %23 = sub nsw i64 0, %22
  %24 = shl nuw nsw i64 %22, 1
  %.pre66 = load ptr, ptr %10, align 8, !tbaa !148
  %.pre67 = load ptr, ptr %13, align 8, !tbaa !150
  br i1 %18, label %.lr.ph.split.us, label %.lr.ph.split

.lr.ph.split.us:                                  ; preds = %.lr.ph, %70
  %25 = phi ptr [ %71, %70 ], [ %.pre67, %.lr.ph ]
  %26 = phi ptr [ %72, %70 ], [ %.pre66, %.lr.ph ]
  %27 = phi i32 [ %73, %70 ], [ %8, %.lr.ph ]
  %.062.us = phi ptr [ %42, %70 ], [ %3, %.lr.ph ]
  %28 = load ptr, ptr %9, align 8, !tbaa !151
  %29 = load ptr, ptr %2, align 8, !tbaa !152
  %30 = getelementptr inbounds i16, ptr %26, i64 %12
  %31 = getelementptr inbounds i16, ptr %25, i64 %12
  %32 = load i32, ptr %.062.us, align 4, !tbaa !61
  %.lobit.i.us = lshr i32 %32, 31
  %33 = icmp sgt i32 %32, 0
  %.neg.i.us = sext i1 %33 to i32
  %34 = add nsw i32 %.lobit.i.us, %.neg.i.us
  %35 = tail call i32 %28(ptr noundef %29, ptr noundef nonnull %30, ptr noundef nonnull %31, i32 noundef %5, i32 noundef %34) #14
  %36 = sext i32 %35 to i64
  %37 = add nsw i64 %16, %36
  %38 = ashr i64 %37, %17
  %39 = trunc i64 %38 to i32
  %40 = load i32, ptr %.062.us, align 4, !tbaa !61
  %41 = add i32 %40, %39
  %42 = getelementptr inbounds nuw i8, ptr %.062.us, i64 4
  store i32 %41, ptr %.062.us, align 4, !tbaa !61
  %43 = tail call i32 @llvm.smax.i32(i32 %41, i32 -32768)
  %44 = tail call i32 @llvm.smin.i32(i32 %43, i32 32767)
  %.0.i.us = trunc nsw i32 %44 to i16
  %45 = load ptr, ptr %10, align 8, !tbaa !148
  %46 = getelementptr inbounds nuw i8, ptr %45, i64 2
  store ptr %46, ptr %10, align 8, !tbaa !148
  store i16 %.0.i.us, ptr %45, align 2, !tbaa !54
  %47 = icmp eq i32 %41, 0
  %48 = lshr i32 %41, 28
  %49 = trunc nuw nsw i32 %48 to i16
  %50 = and i16 %49, 8
  %51 = add nsw i16 %50, -4
  %52 = select i1 %47, i16 0, i16 %51
  %53 = load ptr, ptr %13, align 8, !tbaa !150
  store i16 %52, ptr %53, align 2, !tbaa !54
  %54 = getelementptr inbounds i8, ptr %53, i64 -8
  %55 = load i16, ptr %54, align 2, !tbaa !54
  %56 = ashr i16 %55, 1
  store i16 %56, ptr %54, align 2, !tbaa !54
  %57 = getelementptr inbounds i8, ptr %53, i64 -16
  %58 = load i16, ptr %57, align 2, !tbaa !54
  %59 = ashr i16 %58, 1
  store i16 %59, ptr %57, align 2, !tbaa !54
  %60 = getelementptr inbounds nuw i8, ptr %53, i64 2
  store ptr %60, ptr %13, align 8, !tbaa !150
  %61 = load ptr, ptr %20, align 8, !tbaa !153
  %62 = getelementptr inbounds nuw i8, ptr %61, i64 1024
  %63 = getelementptr inbounds nuw i16, ptr %62, i64 %22
  %64 = icmp eq ptr %46, %63
  br i1 %64, label %65, label %70

65:                                               ; preds = %.lr.ph.split.us
  %66 = getelementptr inbounds i16, ptr %46, i64 %23
  tail call void @llvm.memmove.p0.p0.i64(ptr noundef nonnull align 2 dereferenceable(1) %61, ptr noundef nonnull align 2 dereferenceable(1) %66, i64 %24, i1 false)
  %67 = load ptr, ptr %20, align 8, !tbaa !153
  %68 = getelementptr inbounds nuw i16, ptr %67, i64 %22
  store ptr %68, ptr %10, align 8, !tbaa !148
  %69 = getelementptr inbounds nuw i16, ptr %67, i64 %11
  store ptr %69, ptr %13, align 8, !tbaa !150
  br label %70

70:                                               ; preds = %65, %.lr.ph.split.us
  %71 = phi ptr [ %69, %65 ], [ %60, %.lr.ph.split.us ]
  %72 = phi ptr [ %68, %65 ], [ %46, %.lr.ph.split.us ]
  %73 = add nsw i32 %27, -1
  %.not.us = icmp eq i32 %27, 0
  br i1 %.not.us, label %._crit_edge, label %.lr.ph.split.us, !llvm.loop !154

.lr.ph.split:                                     ; preds = %.lr.ph, %141
  %74 = phi ptr [ %142, %141 ], [ %.pre67, %.lr.ph ]
  %75 = phi ptr [ %143, %141 ], [ %.pre66, %.lr.ph ]
  %76 = phi i32 [ %144, %141 ], [ %8, %.lr.ph ]
  %.062 = phi ptr [ %91, %141 ], [ %3, %.lr.ph ]
  %77 = load ptr, ptr %9, align 8, !tbaa !151
  %78 = load ptr, ptr %2, align 8, !tbaa !152
  %79 = getelementptr inbounds i16, ptr %75, i64 %12
  %80 = getelementptr inbounds i16, ptr %74, i64 %12
  %81 = load i32, ptr %.062, align 4, !tbaa !61
  %.lobit.i = lshr i32 %81, 31
  %82 = icmp sgt i32 %81, 0
  %.neg.i = sext i1 %82 to i32
  %83 = add nsw i32 %.lobit.i, %.neg.i
  %84 = tail call i32 %77(ptr noundef %78, ptr noundef nonnull %79, ptr noundef nonnull %80, i32 noundef %5, i32 noundef %83) #14
  %85 = sext i32 %84 to i64
  %86 = add nsw i64 %16, %85
  %87 = ashr i64 %86, %17
  %88 = trunc i64 %87 to i32
  %89 = load i32, ptr %.062, align 4, !tbaa !61
  %90 = add i32 %89, %88
  %91 = getelementptr inbounds nuw i8, ptr %.062, i64 4
  store i32 %90, ptr %.062, align 4, !tbaa !61
  %92 = tail call i32 @llvm.smax.i32(i32 %90, i32 -32768)
  %93 = tail call i32 @llvm.smin.i32(i32 %92, i32 32767)
  %.0.i = trunc nsw i32 %93 to i16
  %94 = load ptr, ptr %10, align 8, !tbaa !148
  %95 = getelementptr inbounds nuw i8, ptr %94, i64 2
  store ptr %95, ptr %10, align 8, !tbaa !148
  store i16 %.0.i, ptr %94, align 2, !tbaa !54
  %96 = tail call i32 @llvm.abs.i32(i32 %90, i1 false)
  %.not58 = icmp eq i32 %90, 0
  br i1 %.not58, label %114, label %97

97:                                               ; preds = %.lr.ph.split
  %.lobit.i59 = lshr i32 %90, 31
  %98 = icmp sgt i32 %90, 0
  %.neg.i60 = sext i1 %98 to i32
  %99 = add nsw i32 %.lobit.i59, %.neg.i60
  %100 = zext i32 %96 to i64
  %101 = load i32, ptr %19, align 8, !tbaa !155
  %102 = zext i32 %101 to i64
  %103 = mul nuw nsw i64 %102, 3
  %104 = icmp samesign ult i64 %103, %100
  %105 = zext i1 %104 to i32
  %106 = udiv i32 %101, 3
  %107 = add i32 %106, %101
  %108 = icmp ugt i32 %96, %107
  %109 = select i1 %108, i32 4, i32 3
  %110 = add nuw nsw i32 %109, %105
  %111 = shl nsw i32 %99, %110
  %112 = trunc nsw i32 %111 to i16
  %113 = load ptr, ptr %13, align 8, !tbaa !150
  store i16 %112, ptr %113, align 2, !tbaa !54
  br label %116

114:                                              ; preds = %.lr.ph.split
  %115 = load ptr, ptr %13, align 8, !tbaa !150
  store i16 0, ptr %115, align 2, !tbaa !54
  %.pre65 = load i32, ptr %19, align 8, !tbaa !155
  br label %116

116:                                              ; preds = %114, %97
  %117 = phi ptr [ %115, %114 ], [ %113, %97 ]
  %118 = phi i32 [ %.pre65, %114 ], [ %101, %97 ]
  %119 = sub i32 %96, %118
  %120 = sdiv i32 %119, 16
  %121 = add i32 %120, %118
  store i32 %121, ptr %19, align 8, !tbaa !155
  %122 = getelementptr inbounds i8, ptr %117, i64 -2
  %123 = load i16, ptr %122, align 2, !tbaa !54
  %124 = ashr i16 %123, 1
  store i16 %124, ptr %122, align 2, !tbaa !54
  %125 = getelementptr inbounds i8, ptr %117, i64 -4
  %126 = load i16, ptr %125, align 2, !tbaa !54
  %127 = ashr i16 %126, 1
  store i16 %127, ptr %125, align 2, !tbaa !54
  %128 = getelementptr inbounds i8, ptr %117, i64 -16
  %129 = load i16, ptr %128, align 2, !tbaa !54
  %130 = ashr i16 %129, 1
  store i16 %130, ptr %128, align 2, !tbaa !54
  %131 = getelementptr inbounds nuw i8, ptr %117, i64 2
  store ptr %131, ptr %13, align 8, !tbaa !150
  %132 = load ptr, ptr %20, align 8, !tbaa !153
  %133 = getelementptr inbounds nuw i8, ptr %132, i64 1024
  %134 = getelementptr inbounds nuw i16, ptr %133, i64 %22
  %135 = icmp eq ptr %95, %134
  br i1 %135, label %136, label %141

136:                                              ; preds = %116
  %137 = getelementptr inbounds i16, ptr %95, i64 %23
  tail call void @llvm.memmove.p0.p0.i64(ptr noundef nonnull align 2 dereferenceable(1) %132, ptr noundef nonnull align 2 dereferenceable(1) %137, i64 %24, i1 false)
  %138 = load ptr, ptr %20, align 8, !tbaa !153
  %139 = getelementptr inbounds nuw i16, ptr %138, i64 %22
  store ptr %139, ptr %10, align 8, !tbaa !148
  %140 = getelementptr inbounds nuw i16, ptr %138, i64 %11
  store ptr %140, ptr %13, align 8, !tbaa !150
  br label %141

141:                                              ; preds = %136, %116
  %142 = phi ptr [ %140, %136 ], [ %131, %116 ]
  %143 = phi ptr [ %139, %136 ], [ %95, %116 ]
  %144 = add nsw i32 %76, -1
  %.not = icmp eq i32 %76, 0
  br i1 %.not, label %._crit_edge, label %.lr.ph.split, !llvm.loop !154

._crit_edge:                                      ; preds = %141, %70, %7
  ret void
}